Certificate:
    Data:
        Version: 3 (0x2)
        Serial Number:
            b6:7b:e8:90:4d:70:7d:7f
        Signature Algorithm: sha1WithRSAEncryption
        Issuer: C=AU, ST=Australian Capital Territory, O=Qca Development and Test, OU=Certificate Generation Section, CN=Qca Test Root Certificate/emailAddress=testonly@test.example.com
        Validity
            Not Before: Jul 22 01:48:15 2007 GMT
            Not After : Jan 11 01:48:15 2013 GMT
        Subject: C=AU, ST=Australian Capital Territory, O=Qca Development and Test, OU=Certificate Generation Section, CN=Qca Test Root Certificate/emailAddress=testonly@test.example.com
        Subject Public Key Info:
            Public Key Algorithm: rsaEncryption
            RSA Public Key: (1024 bit)
                Modulus (1024 bit):
                    00:a1:a2:3e:9e:53:de:98:2c:2f:9e:fa:12:fa:54:
                    6c:0a:0a:e8:23:f4:25:86:24:da:ed:6f:18:e2:6e:
                    1e:ae:36:4e:45:63:0d:5b:20:aa:09:70:55:b9:a1:
                    08:e3:cb:3d:e3:c3:ca:34:c3:c7:90:30:50:51:d6:
                    30:b3:3f:12:70:99:ae:2d:c8:2e:ea:c6:c6:43:e5:
                    9f:30:ab:e3:5b:d9:b0:91:92:c2:94:79:79:9b:87:
                    05:60:01:8c:f1:0e:75:f7:82:d6:f9:e6:fb:45:b8:
                    4d:53:eb:66:a0:98:93:28:d7:1e:db:43:3d:84:9b:
                    2b:1f:ee:af:d8:23:b5:a1:cd
                Exponent: 65537 (0x10001)
        X509v3 extensions:
            X509v3 Basic Constraints: critical
                CA:TRUE
            X509v3 Key Usage: 
                Digital Signature, Non Repudiation, Key Encipherment, Certificate Sign, CRL Sign
            X509v3 Subject Key Identifier: 
                51:3F:F2:14:6E:49:6A:DC:41:B8:15:B5:A0:86:F4:2E:E4:F5:45:F8
            X509v3 Authority Key Identifier: 
                keyid:51:3F:F2:14:6E:49:6A:DC:41:B8:15:B5:A0:86:F4:2E:E4:F5:45:F8
                DirName:/C=AU/ST=Australian Capital Territory/O=Qca Development and Test/OU=Certificate Generation Section/CN=Qca Test Root Certificate/emailAddress=testonly@test.example.com
                serial:B6:7B:E8:90:4D:70:7D:7F

            X509v3 Subject Alternative Name: 
                email:testonly@test.example.com
            X509v3 Issuer Alternative Name: 
                email:testonly@test.example.com
            Netscape Cert Type: 
                SSL CA, S/MIME CA, Object Signing CA
            Netscape Comment: 
                This certificate was issued for testing only!
    Signature Algorithm: sha1WithRSAEncryption
        0f:b6:d9:37:b3:d8:bb:69:1e:ce:1a:35:29:1b:ce:d5:38:3e:
        29:13:17:91:5b:1f:9c:59:52:67:d3:05:91:2a:e8:7f:b9:76:
        1a:01:f6:9f:07:74:be:e4:37:87:d0:9b:84:c6:81:3f:c4:96:
        52:46:80:52:a7:7b:14:fd:f6:4d:23:15:b6:7e:2a:a6:d7:90:
        97:4f:22:7c:3e:7d:12:84:28:a4:9a:30:67:77:16:f7:80:0f:
        6a:d0:82:fc:f6:91:39:14:d2:a5:de:18:f1:bb:38:f1:98:88:
        1c:13:63:e9:a3:d7:b5:b0:70:f2:82:58:bd:ef:3c:02:42:a0:
        7e:c9
-----BEGIN CERTIFICATE-----
MIIFAzCCBGygAwIBAgIJALZ76JBNcH1/MA0GCSqGSIb3DQEBBQUAMIHOMQswCQYD
VQQGEwJBVTElMCMGA1UECBMcQXVzdHJhbGlhbiBDYXBpdGFsIFRlcnJpdG9yeTEh
MB8GA1UEChMYUWNhIERldmVsb3BtZW50IGFuZCBUZXN0MScwJQYDVQQLEx5DZXJ0
aWZpY2F0ZSBHZW5lcmF0aW9uIFNlY3Rpb24xIjAgBgNVBAMTGVFjYSBUZXN0IFJv
b3QgQ2VydGlmaWNhdGUxKDAmBgkqhkiG9w0BCQEWGXRlc3Rvbmx5QHRlc3QuZXhh
bXBsZS5jb20wHhcNMDcwNzIyMDE0ODE1WhcNMTMwMTExMDE0ODE1WjCBzjELMAkG
A1UEBhMCQVUxJTAjBgNVBAgTHEF1c3RyYWxpYW4gQ2FwaXRhbCBUZXJyaXRvcnkx
ITAfBgNVBAoTGFFjYSBEZXZlbG9wbWVudCBhbmQgVGVzdDEnMCUGA1UECxMeQ2Vy
dGlmaWNhdGUgR2VuZXJhdGlvbiBTZWN0aW9uMSIwIAYDVQQDExlRY2EgVGVzdCBS
b290IENlcnRpZmljYXRlMSgwJgYJKoZIhvcNAQkBFhl0ZXN0b25seUB0ZXN0LmV4
YW1wbGUuY29tMIGfMA0GCSqGSIb3DQEBAQUAA4GNADCBiQKBgQChoj6eU96YLC+e
+hL6VGwKCugj9CWGJNrtbxjibh6uNk5FYw1bIKoJcFW5oQjjyz3jw8o0w8eQMFBR
1jCzPxJwma4tyC7qxsZD5Z8wq+Nb2bCRksKUeXmbhwVgAYzxDnX3gtb55vtFuE1T
62agmJMo1x7bQz2Emysf7q/YI7WhzQIDAQABo4IB5TCCAeEwDwYDVR0TAQH/BAUw
AwEB/zALBgNVHQ8EBAMCAeYwHQYDVR0OBBYEFFE/8hRuSWrcQbgVtaCG9C7k9UX4
MIIBAwYDVR0jBIH7MIH4gBRRP/IUbklq3EG4FbWghvQu5PVF+KGB1KSB0TCBzjEL
MAkGA1UEBhMCQVUxJTAjBgNVBAgTHEF1c3RyYWxpYW4gQ2FwaXRhbCBUZXJyaXRv
cnkxITAfBgNVBAoTGFFjYSBEZXZlbG9wbWVudCBhbmQgVGVzdDEnMCUGA1UECxMe
Q2VydGlmaWNhdGUgR2VuZXJhdGlvbiBTZWN0aW9uMSIwIAYDVQQDExlRY2EgVGVz
dCBSb290IENlcnRpZmljYXRlMSgwJgYJKoZIhvcNAQkBFhl0ZXN0b25seUB0ZXN0
LmV4YW1wbGUuY29tggkAtnvokE1wfX8wJAYDVR0RBB0wG4EZdGVzdG9ubHlAdGVz
dC5leGFtcGxlLmNvbTAkBgNVHRIEHTAbgRl0ZXN0b25seUB0ZXN0LmV4YW1wbGUu
Y29tMBEGCWCGSAGG+EIBAQQEAwIABzA8BglghkgBhvhCAQ0ELxYtVGhpcyBjZXJ0
aWZpY2F0ZSB3YXMgaXNzdWVkIGZvciB0ZXN0aW5nIG9ubHkhMA0GCSqGSIb3DQEB
BQUAA4GBAA+22Tez2LtpHs4aNSkbztU4PikTF5FbH5xZUmfTBZEq6H+5dhoB9p8H
dL7kN4fQm4TGgT/EllJGgFKnexT99k0jFbZ+KqbXkJdPInw+fRKEKKSaMGd3FveA
D2rQgvz2kTkU0qXeGPG7OPGYiBwTY+mj17WwcPKCWL3vPAJCoH7J
-----END CERTIFICATE-----
