Certificate:
    Data:
        Version: 3 (0x2)
        Serial Number:
            b6:7b:e8:90:4d:70:7d:81
        Signature Algorithm: sha1WithRSAEncryption
        Issuer: C=AU, ST=Australian Capital Territory, O=Qca Development and Test, OU=Certificate Generation Section, CN=Qca Test Root Certificate/emailAddress=testonly@test.example.com
        Validity
            Not Before: Jul 22 06:05:39 2007 GMT
            Not After : Jul 20 06:05:39 2012 GMT
        Subject: C=IL, ST=Qca Province, L=TLS City, O=Qca Development and Test, OU=Server Management Section, CN=Qca Server Test certificate/emailAddress=server@test.example.com
        Subject Public Key Info:
            Public Key Algorithm: rsaEncryption
            RSA Public Key: (1024 bit)
                Modulus (1024 bit):
                    00:c1:59:ff:39:1d:96:af:d8:55:cd:89:a1:19:14:
                    a0:63:33:2a:1c:09:92:07:ea:8e:64:91:17:19:3a:
                    ca:6d:a8:2a:81:7d:a6:48:6a:8c:04:d5:dc:9b:b0:
                    86:44:8c:65:27:9c:a6:63:ec:f0:f6:f2:03:76:4e:
                    46:72:20:3c:eb:ac:c5:a7:4d:fa:36:84:a7:a1:45:
                    c2:54:43:b9:5d:88:17:b6:b2:6c:af:ce:9c:e2:2e:
                    65:e2:82:4c:02:a4:4d:91:58:7d:16:14:dc:29:1c:
                    1c:bc:c5:89:ac:e0:ea:f7:2d:9a:fe:d8:ca:53:98:
                    ce:ab:3a:c2:60:ad:91:e9:4f
                Exponent: 65537 (0x10001)
        X509v3 extensions:
            Netscape Cert Type: 
                SSL Server
            X509v3 Key Usage: 
                Digital Signature, Non Repudiation, Key Encipherment
            X509v3 Extended Key Usage: 
                TLS Web Server Authentication
            Netscape Comment: 
                This certificate was issued for qca server testing only!
            X509v3 Subject Key Identifier: 
                3C:AA:B3:B7:59:75:DB:2C:95:AF:B4:81:FA:56:40:D8:98:6B:27:CB
            X509v3 Authority Key Identifier: 
                keyid:51:3F:F2:14:6E:49:6A:DC:41:B8:15:B5:A0:86:F4:2E:E4:F5:45:F8
                DirName:/C=AU/ST=Australian Capital Territory/O=Qca Development and Test/OU=Certificate Generation Section/CN=Qca Test Root Certificate/emailAddress=testonly@test.example.com
                serial:B6:7B:E8:90:4D:70:7D:7F

            X509v3 Subject Alternative Name: 
                email:server@test.example.com
            X509v3 Issuer Alternative Name: 
                email:testonly@test.example.com
    Signature Algorithm: sha1WithRSAEncryption
        0f:0b:9f:d9:38:62:20:40:a5:ff:0c:7b:d5:21:82:dd:9a:74:
        94:81:72:aa:94:fc:1b:e0:53:56:e1:65:67:ed:a5:97:94:87:
        fc:ee:37:66:e5:bf:7e:92:1b:b9:a4:e8:96:4a:5e:67:64:de:
        f8:43:47:de:50:85:f6:a6:47:df:b4:ff:e3:93:ef:8e:b1:7c:
        38:52:e4:e4:90:45:d1:85:db:c2:db:91:81:44:5a:41:a8:9b:
        68:f6:dd:4b:c0:88:f0:fb:f0:73:17:9d:c4:9e:2b:1d:ba:6c:
        43:bd:38:a3:f7:3f:55:cb:1a:7b:c4:5e:4a:39:fc:a2:86:ed:
        d9:ba
-----BEGIN CERTIFICATE-----
MIIFDjCCBHegAwIBAgIJALZ76JBNcH2BMA0GCSqGSIb3DQEBBQUAMIHOMQswCQYD
VQQGEwJBVTElMCMGA1UECBMcQXVzdHJhbGlhbiBDYXBpdGFsIFRlcnJpdG9yeTEh
MB8GA1UEChMYUWNhIERldmVsb3BtZW50IGFuZCBUZXN0MScwJQYDVQQLEx5DZXJ0
aWZpY2F0ZSBHZW5lcmF0aW9uIFNlY3Rpb24xIjAgBgNVBAMTGVFjYSBUZXN0IFJv
b3QgQ2VydGlmaWNhdGUxKDAmBgkqhkiG9w0BCQEWGXRlc3Rvbmx5QHRlc3QuZXhh
bXBsZS5jb20wHhcNMDcwNzIyMDYwNTM5WhcNMTIwNzIwMDYwNTM5WjCBzDELMAkG
A1UEBhMCSUwxFTATBgNVBAgTDFFjYSBQcm92aW5jZTERMA8GA1UEBxMIVExTIENp
dHkxITAfBgNVBAoTGFFjYSBEZXZlbG9wbWVudCBhbmQgVGVzdDEiMCAGA1UECxMZ
U2VydmVyIE1hbmFnZW1lbnQgU2VjdGlvbjEkMCIGA1UEAxMbUWNhIFNlcnZlciBU
ZXN0IGNlcnRpZmljYXRlMSYwJAYJKoZIhvcNAQkBFhdzZXJ2ZXJAdGVzdC5leGFt
cGxlLmNvbTCBnzANBgkqhkiG9w0BAQEFAAOBjQAwgYkCgYEAwVn/OR2Wr9hVzYmh
GRSgYzMqHAmSB+qOZJEXGTrKbagqgX2mSGqMBNXcm7CGRIxlJ5ymY+zw9vIDdk5G
ciA866zFp036NoSnoUXCVEO5XYgXtrJsr86c4i5l4oJMAqRNkVh9FhTcKRwcvMWJ
rODq9y2a/tjKU5jOqzrCYK2R6U8CAwEAAaOCAfIwggHuMBEGCWCGSAGG+EIBAQQE
AwIGQDALBgNVHQ8EBAMCBeAwEwYDVR0lBAwwCgYIKwYBBQUHAwEwRwYJYIZIAYb4
QgENBDoWOFRoaXMgY2VydGlmaWNhdGUgd2FzIGlzc3VlZCBmb3IgcWNhIHNlcnZl
ciB0ZXN0aW5nIG9ubHkhMB0GA1UdDgQWBBQ8qrO3WXXbLJWvtIH6VkDYmGsnyzCC
AQMGA1UdIwSB+zCB+IAUUT/yFG5JatxBuBW1oIb0LuT1RfihgdSkgdEwgc4xCzAJ
BgNVBAYTAkFVMSUwIwYDVQQIExxBdXN0cmFsaWFuIENhcGl0YWwgVGVycml0b3J5
MSEwHwYDVQQKExhRY2EgRGV2ZWxvcG1lbnQgYW5kIFRlc3QxJzAlBgNVBAsTHkNl
cnRpZmljYXRlIEdlbmVyYXRpb24gU2VjdGlvbjEiMCAGA1UEAxMZUWNhIFRlc3Qg
Um9vdCBDZXJ0aWZpY2F0ZTEoMCYGCSqGSIb3DQEJARYZdGVzdG9ubHlAdGVzdC5l
eGFtcGxlLmNvbYIJALZ76JBNcH1/MCIGA1UdEQQbMBmBF3NlcnZlckB0ZXN0LmV4
YW1wbGUuY29tMCQGA1UdEgQdMBuBGXRlc3Rvbmx5QHRlc3QuZXhhbXBsZS5jb20w
DQYJKoZIhvcNAQEFBQADgYEADwuf2ThiIECl/wx71SGC3Zp0lIFyqpT8G+BTVuFl
Z+2ll5SH/O43ZuW/fpIbuaTolkpeZ2Te+ENH3lCF9qZH37T/45PvjrF8OFLk5JBF
0YXbwtuRgURaQaibaPbdS8CI8PvwcxedxJ4rHbpsQ704o/c/Vcsae8ReSjn8oobt
2bo=
-----END CERTIFICATE-----
