Certificate:
    Data:
        Version: 3 (0x2)
        Serial Number: 13149359243510447489 (0xb67be8904d707d81)
    Signature Algorithm: sha1WithRSAEncryption
        Issuer: C=AU, ST=Australian Capital Territory, O=Qca Development and Test, OU=Certificate Generation Section, CN=Qca Test Root Certificate/emailAddress=testonly@test.example.com
        Validity
            Not Before: Jul 31 15:23:25 2013 GMT
            Not After : Jul 26 15:23:25 2033 GMT
        Subject: C=IL, ST=Qca Province, O=Qca Development and Test, OU=Server Management Section, CN=Qca Server Test certificate/emailAddress=server@test.example.com, L=TLS City
        Subject Public Key Info:
            Public Key Algorithm: rsaEncryption
                Public-Key: (1024 bit)
                Modulus:
                    00:aa:8a:7c:bd:45:52:83:ef:2b:51:51:a5:f1:ee:
                    ed:21:1c:2d:a5:5d:4b:af:fa:15:ed:b6:95:ba:59:
                    d5:d6:53:ab:b1:ee:98:41:fa:e2:30:cd:b6:e0:1e:
                    60:35:e9:fc:63:16:18:5e:d9:9f:32:45:74:6a:b3:
                    a2:69:df:ea:88:4a:62:54:3b:8f:e8:76:de:9e:94:
                    32:12:7e:67:08:a8:98:a1:3e:64:ab:6b:80:5b:be:
                    51:69:6d:dd:77:80:f1:3c:9d:c9:06:ff:5d:5a:7f:
                    fd:06:14:db:32:29:cf:46:77:ef:3c:ae:43:d8:0e:
                    90:93:df:85:74:bc:e3:bf:fd
                Exponent: 65537 (0x10001)
        X509v3 extensions:
            X509v3 Basic Constraints: 
                CA:FALSE
            X509v3 Key Usage: 
                Digital Signature, Non Repudiation, Key Encipherment
            X509v3 Extended Key Usage: 
                TLS Web Server Authentication
            Netscape Comment: 
                OpenSSL Generated Certificate
            X509v3 Subject Key Identifier: 
                81:98:70:C8:B8:1E:AB:53:E7:2D:04:46:B6:57:90:AA:0D:3E:AB:1A
            X509v3 Authority Key Identifier: 
                keyid:F6:1C:45:1D:E1:B0:45:81:38:C6:05:68:C1:A7:CB:0F:7A:DE:03:63

            X509v3 Subject Alternative Name: 
                email:server@test.example.com
            X509v3 Issuer Alternative Name: 
                email:testonly@test.example.com
    Signature Algorithm: sha1WithRSAEncryption
         41:74:7c:68:71:03:0a:64:94:f2:80:9d:0c:31:3a:68:c4:12:
         7f:b1:6f:de:76:a5:b3:0d:07:f4:06:65:34:69:64:73:9d:66:
         7d:f5:49:87:df:77:46:77:41:96:73:48:a0:bd:9c:bd:74:ea:
         74:68:34:5f:80:03:3e:4c:d1:0b:5b:be:29:d4:43:75:8c:4b:
         a2:bf:18:d0:41:60:2c:3c:76:a1:2d:75:76:22:b4:a5:8d:17:
         7a:43:e6:c0:95:23:7f:cd:ad:78:66:81:66:59:a8:06:c2:c1:
         22:19:da:98:8f:bc:f7:e6:cc:87:87:b4:a7:41:96:de:09:b1:
         d9:bc
-----BEGIN CERTIFICATE-----
MIIEAzCCA2ygAwIBAgIJALZ76JBNcH2BMA0GCSqGSIb3DQEBBQUAMIHOMQswCQYD
VQQGEwJBVTElMCMGA1UECAwcQXVzdHJhbGlhbiBDYXBpdGFsIFRlcnJpdG9yeTEh
MB8GA1UECgwYUWNhIERldmVsb3BtZW50IGFuZCBUZXN0MScwJQYDVQQLDB5DZXJ0
aWZpY2F0ZSBHZW5lcmF0aW9uIFNlY3Rpb24xIjAgBgNVBAMMGVFjYSBUZXN0IFJv
b3QgQ2VydGlmaWNhdGUxKDAmBgkqhkiG9w0BCQEWGXRlc3Rvbmx5QHRlc3QuZXhh
bXBsZS5jb20wHhcNMTMwNzMxMTUyMzI1WhcNMzMwNzI2MTUyMzI1WjCBzDELMAkG
A1UEBhMCSUwxFTATBgNVBAgMDFFjYSBQcm92aW5jZTEhMB8GA1UECgwYUWNhIERl
dmVsb3BtZW50IGFuZCBUZXN0MSIwIAYDVQQLDBlTZXJ2ZXIgTWFuYWdlbWVudCBT
ZWN0aW9uMSQwIgYDVQQDDBtRY2EgU2VydmVyIFRlc3QgY2VydGlmaWNhdGUxJjAk
BgkqhkiG9w0BCQEWF3NlcnZlckB0ZXN0LmV4YW1wbGUuY29tMREwDwYDVQQHDAhU
TFMgQ2l0eTCBnzANBgkqhkiG9w0BAQEFAAOBjQAwgYkCgYEAqop8vUVSg+8rUVGl
8e7tIRwtpV1Lr/oV7baVulnV1lOrse6YQfriMM224B5gNen8YxYYXtmfMkV0arOi
ad/qiEpiVDuP6HbenpQyEn5nCKiYoT5kq2uAW75RaW3dd4DxPJ3JBv9dWn/9BhTb
MinPRnfvPK5D2A6Qk9+FdLzjv/0CAwEAAaOB6DCB5TAJBgNVHRMEAjAAMAsGA1Ud
DwQEAwIF4DATBgNVHSUEDDAKBggrBgEFBQcDATAsBglghkgBhvhCAQ0EHxYdT3Bl
blNTTCBHZW5lcmF0ZWQgQ2VydGlmaWNhdGUwHQYDVR0OBBYEFIGYcMi4HqtT5y0E
RrZXkKoNPqsaMB8GA1UdIwQYMBaAFPYcRR3hsEWBOMYFaMGnyw963gNjMCIGA1Ud
EQQbMBmBF3NlcnZlckB0ZXN0LmV4YW1wbGUuY29tMCQGA1UdEgQdMBuBGXRlc3Rv
bmx5QHRlc3QuZXhhbXBsZS5jb20wDQYJKoZIhvcNAQEFBQADgYEAQXR8aHEDCmSU
8oCdDDE6aMQSf7Fv3nalsw0H9AZlNGlkc51mffVJh993RndBlnNIoL2cvXTqdGg0
X4ADPkzRC1u+KdRDdYxLor8Y0EFgLDx2oS11diK0pY0XekPmwJUjf82teGaBZlmo
BsLBIhnamI+89+bMh4e0p0GW3gmx2bw=
-----END CERTIFICATE-----
