Certificate:
    Data:
        Version: 3 (0x2)
        Serial Number: 13149359243510447488 (0xb67be8904d707d80)
    Signature Algorithm: sha1WithRSAEncryption
        Issuer: C=AU, ST=Australian Capital Territory, O=Qca Development and Test, OU=Certificate Generation Section, CN=Qca Test Root Certificate/emailAddress=testonly@test.example.com
        Validity
            Not Before: Jul 31 15:14:28 2013 GMT
            Not After : Jul 26 15:14:28 2033 GMT
        Subject: C=US, ST=Kalifornia, O=Qca Development and Test, OU=Certificate Generation Section, CN=Qca Test Client Certificate/emailAddress=client@test.example.com, L=QcaLand
        Subject Public Key Info:
            Public Key Algorithm: rsaEncryption
                Public-Key: (1024 bit)
                Modulus:
                    00:c8:de:85:e7:c6:22:b7:9c:d3:75:15:dc:78:90:
                    4f:c9:ea:dc:19:d1:fb:93:b7:56:4c:d1:19:cc:06:
                    a4:9c:b6:b7:a3:a5:e3:27:70:48:a1:3d:ca:c1:2e:
                    c8:58:88:ac:31:4f:59:f9:47:83:8a:83:c1:15:f2:
                    b9:cb:58:3f:15:3c:1d:5d:83:df:b0:3f:06:66:e4:
                    35:96:c3:47:4b:ce:c5:8a:da:03:30:be:a7:0b:28:
                    56:88:7a:b5:25:3b:5e:37:ec:57:02:69:9e:d5:ba:
                    c8:be:b6:71:5c:1e:c5:2c:d9:57:c7:fd:f2:ce:9a:
                    f8:08:68:bc:a2:6f:d6:b0:11
                Exponent: 65537 (0x10001)
        X509v3 extensions:
            X509v3 Basic Constraints: 
                CA:FALSE
            Netscape Cert Type: 
                SSL Client, S/MIME
            X509v3 Key Usage: 
                Digital Signature, Non Repudiation, Key Encipherment, Data Encipherment
            X509v3 Extended Key Usage: 
                E-mail Protection, TLS Web Client Authentication
            Netscape Comment: 
                OpenSSL Generated Certificate
            X509v3 Subject Key Identifier: 
                1E:60:4E:03:12:7D:28:7B:A4:04:27:A9:61:B4:28:A2:D0:9B:50:D1
            X509v3 Authority Key Identifier: 
                keyid:F6:1C:45:1D:E1:B0:45:81:38:C6:05:68:C1:A7:CB:0F:7A:DE:03:63

            X509v3 Subject Alternative Name: 
                email:client@test.example.com
            X509v3 Issuer Alternative Name: 
                email:testonly@test.example.com
    Signature Algorithm: sha1WithRSAEncryption
         55:1e:ad:df:e4:b4:d6:43:2e:75:cd:b8:3b:07:06:62:c4:15:
         1f:f9:ac:61:a2:e7:35:66:a2:70:43:cb:2d:25:2d:10:16:6d:
         44:84:84:80:82:71:80:a3:ba:ca:9c:4d:f0:69:9b:11:0d:93:
         7b:69:e8:b9:e5:1f:b8:f1:63:32:0f:2b:0e:97:99:06:23:b3:
         8f:cb:5e:5c:5b:63:cf:e8:74:34:42:f5:50:32:4b:b0:6e:bb:
         70:fb:70:00:d3:04:2c:a9:28:c7:0b:9d:53:03:86:43:a4:8c:
         8e:27:a1:d8:eb:a6:f9:71:dc:3b:68:c9:c2:49:be:1a:56:41:
         19:85
-----BEGIN CERTIFICATE-----
MIIEJDCCA42gAwIBAgIJALZ76JBNcH2AMA0GCSqGSIb3DQEBBQUAMIHOMQswCQYD
VQQGEwJBVTElMCMGA1UECAwcQXVzdHJhbGlhbiBDYXBpdGFsIFRlcnJpdG9yeTEh
MB8GA1UECgwYUWNhIERldmVsb3BtZW50IGFuZCBUZXN0MScwJQYDVQQLDB5DZXJ0
aWZpY2F0ZSBHZW5lcmF0aW9uIFNlY3Rpb24xIjAgBgNVBAMMGVFjYSBUZXN0IFJv
b3QgQ2VydGlmaWNhdGUxKDAmBgkqhkiG9w0BCQEWGXRlc3Rvbmx5QHRlc3QuZXhh
bXBsZS5jb20wHhcNMTMwNzMxMTUxNDI4WhcNMzMwNzI2MTUxNDI4WjCBzjELMAkG
A1UEBhMCVVMxEzARBgNVBAgMCkthbGlmb3JuaWExITAfBgNVBAoMGFFjYSBEZXZl
bG9wbWVudCBhbmQgVGVzdDEnMCUGA1UECwweQ2VydGlmaWNhdGUgR2VuZXJhdGlv
biBTZWN0aW9uMSQwIgYDVQQDDBtRY2EgVGVzdCBDbGllbnQgQ2VydGlmaWNhdGUx
JjAkBgkqhkiG9w0BCQEWF2NsaWVudEB0ZXN0LmV4YW1wbGUuY29tMRAwDgYDVQQH
DAdRY2FMYW5kMIGfMA0GCSqGSIb3DQEBAQUAA4GNADCBiQKBgQDI3oXnxiK3nNN1
Fdx4kE/J6twZ0fuTt1ZM0RnMBqSctrejpeMncEihPcrBLshYiKwxT1n5R4OKg8EV
8rnLWD8VPB1dg9+wPwZm5DWWw0dLzsWK2gMwvqcLKFaIerUlO1437FcCaZ7Vusi+
tnFcHsUs2VfH/fLOmvgIaLyib9awEQIDAQABo4IBBjCCAQIwCQYDVR0TBAIwADAR
BglghkgBhvhCAQEEBAMCBaAwCwYDVR0PBAQDAgTwMB0GA1UdJQQWMBQGCCsGAQUF
BwMEBggrBgEFBQcDAjAsBglghkgBhvhCAQ0EHxYdT3BlblNTTCBHZW5lcmF0ZWQg
Q2VydGlmaWNhdGUwHQYDVR0OBBYEFB5gTgMSfSh7pAQnqWG0KKLQm1DRMB8GA1Ud
IwQYMBaAFPYcRR3hsEWBOMYFaMGnyw963gNjMCIGA1UdEQQbMBmBF2NsaWVudEB0
ZXN0LmV4YW1wbGUuY29tMCQGA1UdEgQdMBuBGXRlc3Rvbmx5QHRlc3QuZXhhbXBs
ZS5jb20wDQYJKoZIhvcNAQEFBQADgYEAVR6t3+S01kMudc24OwcGYsQVH/msYaLn
NWaicEPLLSUtEBZtRISEgIJxgKO6ypxN8GmbEQ2Te2noueUfuPFjMg8rDpeZBiOz
j8teXFtjz+h0NEL1UDJLsG67cPtwANMELKkoxwudUwOGQ6SMjieh2Oum+XHcO2jJ
wkm+GlZBGYU=
-----END CERTIFICATE-----
