Certificate:
    Data:
        Version: 3 (0x2)
        Serial Number: 1 (0x1)
    Signature Algorithm: sha1WithRSAEncryption
        Issuer: C=AU, ST=Australian Capital Territory, O=Qca Development and Test, OU=Certificate Generation Section, CN=Qca Test Root Certificate/emailAddress=testonly@test.example.com
        Validity
            Not Before: Aug  1 16:12:28 2013 GMT
            Not After : Jul 27 16:12:28 2033 GMT
        Subject: C=US, ST=Kalifornia, O=Qca Development and Test, OU=Certificate Generation Section, CN=Qca Test Client Certificate/emailAddress=client@test.example.com, L=QcaLand
        Subject Public Key Info:
            Public Key Algorithm: rsaEncryption
                Public-Key: (1024 bit)
                Modulus:
                    00:bf:38:f0:71:72:32:8a:f7:31:07:79:d1:35:31:
                    fe:04:51:10:8c:ca:6d:d0:83:5d:04:05:24:6e:6e:
                    24:fe:95:fe:c2:f8:4b:92:39:2c:e8:c3:c8:0d:b3:
                    c6:a2:76:33:66:13:38:29:11:fb:62:92:71:b8:08:
                    2b:6c:43:32:de:67:4e:46:7d:b6:0b:d4:f7:8c:26:
                    29:7d:96:71:a5:8d:ca:01:b4:63:bd:eb:70:62:02:
                    3a:3c:e0:e6:81:f1:2b:d3:a5:7d:aa:72:7f:3c:9e:
                    1f:df:9c:4e:5e:d7:09:fe:f6:9e:9f:8f:4a:25:f2:
                    27:b9:c8:90:76:b0:f1:e2:9d
                Exponent: 65537 (0x10001)
        X509v3 extensions:
            X509v3 Basic Constraints: 
                CA:FALSE
            X509v3 Key Usage: 
                Digital Signature, Non Repudiation, Key Encipherment, Data Encipherment
            X509v3 Extended Key Usage: 
                TLS Web Client Authentication, E-mail Protection
            X509v3 Subject Key Identifier: 
                99:1B:6A:FD:E7:CF:B3:A1:B8:7C:8B:E7:21:75:65:74:31:62:A8:F5
            X509v3 Authority Key Identifier: 
                keyid:C5:B1:01:67:2C:CE:84:23:BD:7C:6B:29:38:D5:47:25:AD:09:DF:67

            X509v3 Subject Alternative Name: 
                email:client@test.example.com
            X509v3 Issuer Alternative Name: 
                email:testonly@test.example.com
    Signature Algorithm: sha1WithRSAEncryption
         43:f5:20:a8:e9:4d:34:62:f7:c7:bc:1d:4f:a2:b4:40:2b:9c:
         29:5a:b6:e1:be:36:3f:dd:49:44:2a:e8:7f:34:a9:71:7e:64:
         6a:2b:cc:59:d7:a3:18:90:cc:45:57:b6:b3:c3:b3:9d:1d:b8:
         0e:aa:fb:0a:f7:94:2d:12:e9:73:86:50:bc:4a:88:49:3f:94:
         d8:07:3a:c3:62:96:45:03:13:37:99:a2:72:99:a6:be:02:3a:
         2f:08:fe:27:b3:0f:cc:dc:f8:b6:41:29:3e:0e:f3:1f:67:85:
         13:ce:45:de:8d:98:0a:5d:4d:8f:3f:ee:0b:03:ea:33:e7:91:
         d9:7c
-----BEGIN CERTIFICATE-----
MIID2TCCA0KgAwIBAgIBATANBgkqhkiG9w0BAQUFADCBzjELMAkGA1UEBhMCQVUx
JTAjBgNVBAgMHEF1c3RyYWxpYW4gQ2FwaXRhbCBUZXJyaXRvcnkxITAfBgNVBAoM
GFFjYSBEZXZlbG9wbWVudCBhbmQgVGVzdDEnMCUGA1UECwweQ2VydGlmaWNhdGUg
R2VuZXJhdGlvbiBTZWN0aW9uMSIwIAYDVQQDDBlRY2EgVGVzdCBSb290IENlcnRp
ZmljYXRlMSgwJgYJKoZIhvcNAQkBFhl0ZXN0b25seUB0ZXN0LmV4YW1wbGUuY29t
MB4XDTEzMDgwMTE2MTIyOFoXDTMzMDcyNzE2MTIyOFowgc4xCzAJBgNVBAYTAlVT
MRMwEQYDVQQIDApLYWxpZm9ybmlhMSEwHwYDVQQKDBhRY2EgRGV2ZWxvcG1lbnQg
YW5kIFRlc3QxJzAlBgNVBAsMHkNlcnRpZmljYXRlIEdlbmVyYXRpb24gU2VjdGlv
bjEkMCIGA1UEAwwbUWNhIFRlc3QgQ2xpZW50IENlcnRpZmljYXRlMSYwJAYJKoZI
hvcNAQkBFhdjbGllbnRAdGVzdC5leGFtcGxlLmNvbTEQMA4GA1UEBwwHUWNhTGFu
ZDCBnzANBgkqhkiG9w0BAQEFAAOBjQAwgYkCgYEAvzjwcXIyivcxB3nRNTH+BFEQ
jMpt0INdBAUkbm4k/pX+wvhLkjks6MPIDbPGonYzZhM4KRH7YpJxuAgrbEMy3mdO
Rn22C9T3jCYpfZZxpY3KAbRjvetwYgI6PODmgfEr06V9qnJ/PJ4f35xOXtcJ/vae
n49KJfInuciQdrDx4p0CAwEAAaOBxDCBwTAJBgNVHRMEAjAAMAsGA1UdDwQEAwIE
8DAdBgNVHSUEFjAUBggrBgEFBQcDAgYIKwYBBQUHAwQwHQYDVR0OBBYEFJkbav3n
z7OhuHyL5yF1ZXQxYqj1MB8GA1UdIwQYMBaAFMWxAWcszoQjvXxrKTjVRyWtCd9n
MCIGA1UdEQQbMBmBF2NsaWVudEB0ZXN0LmV4YW1wbGUuY29tMCQGA1UdEgQdMBuB
GXRlc3Rvbmx5QHRlc3QuZXhhbXBsZS5jb20wDQYJKoZIhvcNAQEFBQADgYEAQ/Ug
qOlNNGL3x7wdT6K0QCucKVq24b42P91JRCrofzSpcX5kaivMWdejGJDMRVe2s8Oz
nR24Dqr7CveULRLpc4ZQvEqIST+U2Ac6w2KWRQMTN5micpmmvgI6Lwj+J7MPzNz4
tkEpPg7zH2eFE85F3o2YCl1Njz/uCwPqM+eR2Xw=
-----END CERTIFICATE-----
