Certificate:
    Data:
        Version: 3 (0x2)
        Serial Number:
            b6:7b:e8:90:4d:70:7d:80
        Signature Algorithm: sha1WithRSAEncryption
        Issuer: C=AU, ST=Australian Capital Territory, O=Qca Development and Test, OU=Certificate Generation Section, CN=Qca Test Root Certificate/emailAddress=testonly@test.example.com
        Validity
            Not Before: Jul 22 03:30:29 2007 GMT
            Not After : Jul 20 03:30:29 2012 GMT
        Subject: C=US, ST=Kalifornia, L=QcaLand, O=Qca Development and Test, OU=Certificate Generation Section, CN=Qca Test Client Certificate/emailAddress=client@test.example.com
        Subject Public Key Info:
            Public Key Algorithm: rsaEncryption
            RSA Public Key: (1024 bit)
                Modulus (1024 bit):
                    00:b0:67:99:c9:d4:42:eb:f5:a6:25:7e:99:31:4e:
                    d7:71:e2:15:95:8b:6a:e9:13:c6:0a:6e:cd:5d:ce:
                    23:c8:b0:4a:af:d6:d3:ef:3d:09:23:97:6d:ed:49:
                    0a:2c:e4:9d:a2:50:78:bc:a5:94:79:45:b1:b0:85:
                    3a:02:1b:5f:f4:be:94:9e:a1:d1:a4:9c:31:02:ed:
                    62:3f:b3:f1:1a:5b:7d:31:27:ae:7b:f1:67:bd:60:
                    86:27:34:80:96:53:04:00:4e:d8:f2:b3:bb:6e:62:
                    ab:51:ee:f9:25:ad:de:3a:4f:e5:1e:d5:42:28:e8:
                    73:96:4c:1f:06:42:ee:d8:8b
                Exponent: 65537 (0x10001)
        X509v3 extensions:
            Netscape Cert Type: 
                SSL Client, S/MIME
            X509v3 Key Usage: 
                Digital Signature, Non Repudiation, Key Encipherment, Data Encipherment
            X509v3 Extended Key Usage: 
                TLS Web Client Authentication, E-mail Protection
            Netscape Comment: 
                This certificate was issued for testing only!
            X509v3 Subject Key Identifier: 
                B2:7F:D3:11:39:23:BE:1D:C4:6F:53:CE:81:AF:F1:D4:80:01:F6:F6
            X509v3 Authority Key Identifier: 
                keyid:51:3F:F2:14:6E:49:6A:DC:41:B8:15:B5:A0:86:F4:2E:E4:F5:45:F8
                DirName:/C=AU/ST=Australian Capital Territory/O=Qca Development and Test/OU=Certificate Generation Section/CN=Qca Test Root Certificate/emailAddress=testonly@test.example.com
                serial:B6:7B:E8:90:4D:70:7D:7F

            X509v3 Subject Alternative Name: 
                email:client@test.example.com
            X509v3 Issuer Alternative Name: 
                email:testonly@test.example.com
    Signature Algorithm: sha1WithRSAEncryption
        36:9a:0e:7a:a4:d3:6b:e8:d6:1b:ba:34:89:a6:dc:26:01:28:
        71:7d:28:71:22:79:ae:3b:27:2a:d5:6c:d6:99:93:c0:01:45:
        5d:78:2a:83:05:a8:eb:41:be:62:37:92:ff:b9:41:3d:37:4c:
        25:85:4b:c8:c3:ba:cd:71:06:18:12:a3:7f:2d:17:90:b2:87:
        e6:ca:86:fb:dc:d0:ef:1d:d6:b3:86:b3:28:72:45:fa:bb:dd:
        32:06:44:b1:ed:35:b6:c4:6b:54:88:49:9d:3a:2e:fa:37:3b:
        84:98:de:68:14:ac:2f:37:42:21:f5:b9:27:18:1b:5d:5e:ba:
        74:09
-----BEGIN CERTIFICATE-----
MIIFDzCCBHigAwIBAgIJALZ76JBNcH2AMA0GCSqGSIb3DQEBBQUAMIHOMQswCQYD
VQQGEwJBVTElMCMGA1UECBMcQXVzdHJhbGlhbiBDYXBpdGFsIFRlcnJpdG9yeTEh
MB8GA1UEChMYUWNhIERldmVsb3BtZW50IGFuZCBUZXN0MScwJQYDVQQLEx5DZXJ0
aWZpY2F0ZSBHZW5lcmF0aW9uIFNlY3Rpb24xIjAgBgNVBAMTGVFjYSBUZXN0IFJv
b3QgQ2VydGlmaWNhdGUxKDAmBgkqhkiG9w0BCQEWGXRlc3Rvbmx5QHRlc3QuZXhh
bXBsZS5jb20wHhcNMDcwNzIyMDMzMDI5WhcNMTIwNzIwMDMzMDI5WjCBzjELMAkG
A1UEBhMCVVMxEzARBgNVBAgTCkthbGlmb3JuaWExEDAOBgNVBAcTB1FjYUxhbmQx
ITAfBgNVBAoTGFFjYSBEZXZlbG9wbWVudCBhbmQgVGVzdDEnMCUGA1UECxMeQ2Vy
dGlmaWNhdGUgR2VuZXJhdGlvbiBTZWN0aW9uMSQwIgYDVQQDExtRY2EgVGVzdCBD
bGllbnQgQ2VydGlmaWNhdGUxJjAkBgkqhkiG9w0BCQEWF2NsaWVudEB0ZXN0LmV4
YW1wbGUuY29tMIGfMA0GCSqGSIb3DQEBAQUAA4GNADCBiQKBgQCwZ5nJ1ELr9aYl
fpkxTtdx4hWVi2rpE8YKbs1dziPIsEqv1tPvPQkjl23tSQos5J2iUHi8pZR5RbGw
hToCG1/0vpSeodGknDEC7WI/s/EaW30xJ6578We9YIYnNICWUwQATtjys7tuYqtR
7vklrd46T+Ue1UIo6HOWTB8GQu7YiwIDAQABo4IB8TCCAe0wEQYJYIZIAYb4QgEB
BAQDAgWgMAsGA1UdDwQEAwIE8DAdBgNVHSUEFjAUBggrBgEFBQcDAgYIKwYBBQUH
AwQwPAYJYIZIAYb4QgENBC8WLVRoaXMgY2VydGlmaWNhdGUgd2FzIGlzc3VlZCBm
b3IgdGVzdGluZyBvbmx5ITAdBgNVHQ4EFgQUsn/TETkjvh3Eb1POga/x1IAB9vYw
ggEDBgNVHSMEgfswgfiAFFE/8hRuSWrcQbgVtaCG9C7k9UX4oYHUpIHRMIHOMQsw
CQYDVQQGEwJBVTElMCMGA1UECBMcQXVzdHJhbGlhbiBDYXBpdGFsIFRlcnJpdG9y
eTEhMB8GA1UEChMYUWNhIERldmVsb3BtZW50IGFuZCBUZXN0MScwJQYDVQQLEx5D
ZXJ0aWZpY2F0ZSBHZW5lcmF0aW9uIFNlY3Rpb24xIjAgBgNVBAMTGVFjYSBUZXN0
IFJvb3QgQ2VydGlmaWNhdGUxKDAmBgkqhkiG9w0BCQEWGXRlc3Rvbmx5QHRlc3Qu
ZXhhbXBsZS5jb22CCQC2e+iQTXB9fzAiBgNVHREEGzAZgRdjbGllbnRAdGVzdC5l
eGFtcGxlLmNvbTAkBgNVHRIEHTAbgRl0ZXN0b25seUB0ZXN0LmV4YW1wbGUuY29t
MA0GCSqGSIb3DQEBBQUAA4GBADaaDnqk02vo1hu6NImm3CYBKHF9KHEiea47JyrV
bNaZk8ABRV14KoMFqOtBvmI3kv+5QT03TCWFS8jDus1xBhgSo38tF5Cyh+bKhvvc
0O8d1rOGsyhyRfq73TIGRLHtNbbEa1SISZ06Lvo3O4SY3mgUrC83QiH1uScYG11e
unQJ
-----END CERTIFICATE-----
