Certificate:
    Data:
        Version: 3 (0x2)
        Serial Number: 5 (0x5)
    Signature Algorithm: sha1WithRSAEncryption
        Issuer: C=AU, ST=Australian Capital Territory, O=Qca Development and Test, OU=Certificate Generation Section, CN=Qca Test Root Certificate/emailAddress=testonly@test.example.com
        Validity
            Not Before: Aug  7 12:26:00 2013 GMT
            Not After : Aug  2 12:26:00 2033 GMT
        Subject: C=US, ST=Kalifornia, O=Qca Development and Test, OU=Certificate Generation Section, CN=Qca Test Client Certificate/emailAddress=client@test.example.com, L=QcaLand
        Subject Public Key Info:
            Public Key Algorithm: rsaEncryption
                Public-Key: (1024 bit)
                Modulus:
                    00:bf:38:f0:71:72:32:8a:f7:31:07:79:d1:35:31:
                    fe:04:51:10:8c:ca:6d:d0:83:5d:04:05:24:6e:6e:
                    24:fe:95:fe:c2:f8:4b:92:39:2c:e8:c3:c8:0d:b3:
                    c6:a2:76:33:66:13:38:29:11:fb:62:92:71:b8:08:
                    2b:6c:43:32:de:67:4e:46:7d:b6:0b:d4:f7:8c:26:
                    29:7d:96:71:a5:8d:ca:01:b4:63:bd:eb:70:62:02:
                    3a:3c:e0:e6:81:f1:2b:d3:a5:7d:aa:72:7f:3c:9e:
                    1f:df:9c:4e:5e:d7:09:fe:f6:9e:9f:8f:4a:25:f2:
                    27:b9:c8:90:76:b0:f1:e2:9d
                Exponent: 65537 (0x10001)
        X509v3 extensions:
            X509v3 Basic Constraints: 
                CA:FALSE
            X509v3 Key Usage: 
                Digital Signature, Non Repudiation, Key Encipherment, Data Encipherment
            X509v3 Extended Key Usage: 
                TLS Web Client Authentication, E-mail Protection
            X509v3 Subject Key Identifier: 
                99:1B:6A:FD:E7:CF:B3:A1:B8:7C:8B:E7:21:75:65:74:31:62:A8:F5
            X509v3 Authority Key Identifier: 
                keyid:C5:B1:01:67:2C:CE:84:23:BD:7C:6B:29:38:D5:47:25:AD:09:DF:67

            X509v3 Subject Alternative Name: 
                email:client@test.example.com
            X509v3 Issuer Alternative Name: 
                email:testonly@test.example.com
    Signature Algorithm: sha1WithRSAEncryption
         d1:8d:8a:30:9b:d6:a4:5b:85:be:8d:12:ab:6e:ec:69:66:0a:
         cc:3b:df:4f:35:5a:b1:d0:a8:5d:12:3a:de:0d:e5:47:7c:d3:
         7f:65:0a:7e:93:8a:a9:82:4a:74:04:e8:f6:30:67:e8:7b:41:
         7b:bd:b6:41:7f:bc:ff:f0:57:77:10:2e:20:5c:d4:9e:04:03:
         a4:78:cb:df:90:da:51:bc:d7:9f:be:12:62:d7:bd:ea:98:af:
         a1:6b:64:9d:da:57:de:d3:18:fa:cd:a0:7f:70:e1:c6:7b:f2:
         d5:b4:ce:0d:1f:fe:d7:52:bd:df:22:87:32:ea:d9:5b:a8:71:
         db:bb
-----BEGIN CERTIFICATE-----
MIID2TCCA0KgAwIBAgIBBTANBgkqhkiG9w0BAQUFADCBzjELMAkGA1UEBhMCQVUx
JTAjBgNVBAgMHEF1c3RyYWxpYW4gQ2FwaXRhbCBUZXJyaXRvcnkxITAfBgNVBAoM
GFFjYSBEZXZlbG9wbWVudCBhbmQgVGVzdDEnMCUGA1UECwweQ2VydGlmaWNhdGUg
R2VuZXJhdGlvbiBTZWN0aW9uMSIwIAYDVQQDDBlRY2EgVGVzdCBSb290IENlcnRp
ZmljYXRlMSgwJgYJKoZIhvcNAQkBFhl0ZXN0b25seUB0ZXN0LmV4YW1wbGUuY29t
MB4XDTEzMDgwNzEyMjYwMFoXDTMzMDgwMjEyMjYwMFowgc4xCzAJBgNVBAYTAlVT
MRMwEQYDVQQIDApLYWxpZm9ybmlhMSEwHwYDVQQKDBhRY2EgRGV2ZWxvcG1lbnQg
YW5kIFRlc3QxJzAlBgNVBAsMHkNlcnRpZmljYXRlIEdlbmVyYXRpb24gU2VjdGlv
bjEkMCIGA1UEAwwbUWNhIFRlc3QgQ2xpZW50IENlcnRpZmljYXRlMSYwJAYJKoZI
hvcNAQkBFhdjbGllbnRAdGVzdC5leGFtcGxlLmNvbTEQMA4GA1UEBwwHUWNhTGFu
ZDCBnzANBgkqhkiG9w0BAQEFAAOBjQAwgYkCgYEAvzjwcXIyivcxB3nRNTH+BFEQ
jMpt0INdBAUkbm4k/pX+wvhLkjks6MPIDbPGonYzZhM4KRH7YpJxuAgrbEMy3mdO
Rn22C9T3jCYpfZZxpY3KAbRjvetwYgI6PODmgfEr06V9qnJ/PJ4f35xOXtcJ/vae
n49KJfInuciQdrDx4p0CAwEAAaOBxDCBwTAJBgNVHRMEAjAAMAsGA1UdDwQEAwIE
8DAdBgNVHSUEFjAUBggrBgEFBQcDAgYIKwYBBQUHAwQwHQYDVR0OBBYEFJkbav3n
z7OhuHyL5yF1ZXQxYqj1MB8GA1UdIwQYMBaAFMWxAWcszoQjvXxrKTjVRyWtCd9n
MCIGA1UdEQQbMBmBF2NsaWVudEB0ZXN0LmV4YW1wbGUuY29tMCQGA1UdEgQdMBuB
GXRlc3Rvbmx5QHRlc3QuZXhhbXBsZS5jb20wDQYJKoZIhvcNAQEFBQADgYEA0Y2K
MJvWpFuFvo0Sq27saWYKzDvfTzVasdCoXRI63g3lR3zTf2UKfpOKqYJKdATo9jBn
6HtBe722QX+8//BXdxAuIFzUngQDpHjL35DaUbzXn74SYte96pivoWtkndpX3tMY
+s2gf3Dhxnvy1bTODR/+11K93yKHMurZW6hx27s=
-----END CERTIFICATE-----
